; Function Attrs: mustprogress nounwind uwtable
define internal fastcc void @"_ZZN3nix19findPackageFilenameERNS_9EvalStateERNS_5ValueENSt7__cxx1112basic_stringIcSt11char_traitsIcESaIcEEEEN3$_0D2Ev"(ptr noundef nonnull align 8 dereferenceable(32) %0) unnamed_addr #6 align 2 personality ptr @__gxx_personality_v0 {
  %2 = load ptr, ptr %0, align 8
  %3 = getelementptr inbounds i8, ptr %0, i64 16
  %4 = icmp eq ptr %2, %3
  br i1 %4, label %_ZNKSt7__cxx1112basic_stringIcSt11char_traitsIcESaIcEE11_M_is_localEv.exit.thread.i.i, label %_ZNKSt7__cxx1112basic_stringIcSt11char_traitsIcESaIcEE11_M_is_localEv.exit.i.i

_ZNKSt7__cxx1112basic_stringIcSt11char_traitsIcESaIcEE11_M_is_localEv.exit.thread.i.i: ; preds = %1
  %5 = getelementptr inbounds i8, ptr %0, i64 8
  %6 = load i64, ptr %5, align 8
  %7 = icmp ult i64 %6, 16
  tail call void @llvm.assume(i1 %7)
  br label %_ZNSt7__cxx1112basic_stringIcSt11char_traitsIcESaIcEED2Ev.exit

_ZNKSt7__cxx1112basic_stringIcSt11char_traitsIcESaIcEE11_M_is_localEv.exit.i.i: ; preds = %1
  tail call void @_ZdlPv(ptr noundef %2) #28
  br label %_ZNSt7__cxx1112basic_stringIcSt11char_traitsIcESaIcEED2Ev.exit

_ZNSt7__cxx1112basic_stringIcSt11char_traitsIcESaIcEED2Ev.exit: ; preds = %_ZNKSt7__cxx1112basic_stringIcSt11char_traitsIcESaIcEE11_M_is_localEv.exit.thread.i.i, %_ZNKSt7__cxx1112basic_stringIcSt11char_traitsIcESaIcEE11_M_is_localEv.exit.i.i
  tail call void @_ZNSaIcED2Ev(ptr noundef nonnull align 1 dereferenceable(1) %0) #27
  ret void
}